; Function Attrs: mustprogress uwtable
define internal fastcc void @_ZL25InitBlockSplitterDistancePN13duckdb_brotli13MemoryManagerEP21BlockSplitterDistancemmdmPNS_10BlockSplitEPPNS_17HistogramDistanceEPm(ptr noundef %0, ptr noundef captures(none) initializes((0, 40), (48, 56), (4440, 4464), (4496, 4504)) %1, i64 noundef %2, ptr noundef %3, ptr noundef writeonly captures(none) %4, ptr noundef %5) unnamed_addr #2 {
  %7 = lshr i64 %2, 9
  %8 = add nuw nsw i64 %7, 1
  store i64 64, ptr %1, align 8, !tbaa !152
  %9 = getelementptr inbounds nuw i8, ptr %1, i64 8
  store i64 512, ptr %9, align 8, !tbaa !153
  %10 = getelementptr inbounds nuw i8, ptr %1, i64 16
  store double 1.000000e+02, ptr %10, align 8, !tbaa !154
  %11 = getelementptr inbounds nuw i8, ptr %1, i64 24
  store i64 0, ptr %11, align 8, !tbaa !155
  %12 = getelementptr inbounds nuw i8, ptr %1, i64 32
  store ptr %3, ptr %12, align 8, !tbaa !156
  %13 = getelementptr inbounds nuw i8, ptr %1, i64 48
  store ptr %5, ptr %13, align 8, !tbaa !157
  %14 = getelementptr inbounds nuw i8, ptr %1, i64 4440
  store i64 512, ptr %14, align 8, !tbaa !104
  %15 = getelementptr inbounds nuw i8, ptr %1, i64 4448
  %16 = getelementptr inbounds nuw i8, ptr %1, i64 4496
  store i64 0, ptr %16, align 8, !tbaa !158
  %17 = getelementptr inbounds nuw i8, ptr %3, i64 32
  tail call void @llvm.memset.p0.i64(ptr noundef nonnull align 8 dereferenceable(16) %15, i8 0, i64 16, i1 false)
  %18 = load i64, ptr %17, align 8, !tbaa !117
  %.not = icmp ugt i64 %18, %7
  br i1 %.not, label %32, label %19

19:                                               ; preds = %6
  %20 = icmp eq i64 %18, 0
  %. = select i1 %20, i64 %8, i64 %18
  br label %21

21:                                               ; preds = %21, %19
  %.0 = phi i64 [ %., %19 ], [ %22, %21 ]
  %.not82 = icmp ugt i64 %.0, %7
  %22 = shl nuw nsw i64 %.0, 1
  br i1 %.not82, label %23, label %21, !llvm.loop !159

23:                                               ; preds = %21
  %24 = tail call noundef ptr @_ZN13duckdb_brotli14BrotliAllocateEPNS_13MemoryManagerEm(ptr noundef %0, i64 noundef %.0)
  %25 = load i64, ptr %17, align 8, !tbaa !117
  %.not83 = icmp eq i64 %25, 0
  br i1 %.not83, label %29, label %26

26:                                               ; preds = %23
  %27 = getelementptr inbounds nuw i8, ptr %3, i64 16
  %28 = load ptr, ptr %27, align 8, !tbaa !119
  tail call void @llvm.memcpy.p0.p0.i64(ptr align 1 %24, ptr align 1 %28, i64 %25, i1 false)
  br label %29

29:                                               ; preds = %26, %23
  %30 = getelementptr inbounds nuw i8, ptr %3, i64 16
  %31 = load ptr, ptr %30, align 8, !tbaa !119
  tail call void @_ZN13duckdb_brotli10BrotliFreeEPNS_13MemoryManagerEPv(ptr noundef %0, ptr noundef %31)
  store ptr %24, ptr %30, align 8, !tbaa !119
  store i64 %.0, ptr %17, align 8, !tbaa !117
  br label %32

32:                                               ; preds = %29, %6
  %33 = getelementptr inbounds nuw i8, ptr %3, i64 40
  %34 = load i64, ptr %33, align 8, !tbaa !120
  %.not84 = icmp ugt i64 %34, %7
  br i1 %.not84, label %50, label %35

35:                                               ; preds = %32
  %36 = icmp eq i64 %34, 0
  %.88 = select i1 %36, i64 %8, i64 %34
  br label %37

37:                                               ; preds = %37, %35
  %.075 = phi i64 [ %.88, %35 ], [ %38, %37 ]
  %.not85 = icmp ugt i64 %.075, %7
  %38 = shl nuw nsw i64 %.075, 1
  br i1 %.not85, label %39, label %37, !llvm.loop !160

39:                                               ; preds = %37
  %40 = shl nuw nsw i64 %.075, 2
  %41 = tail call noundef ptr @_ZN13duckdb_brotli14BrotliAllocateEPNS_13MemoryManagerEm(ptr noundef %0, i64 noundef %40)
  %42 = load i64, ptr %33, align 8, !tbaa !120
  %.not86 = icmp eq i64 %42, 0
  br i1 %.not86, label %47, label %43

43:                                               ; preds = %39
  %44 = getelementptr inbounds nuw i8, ptr %3, i64 24
  %45 = load ptr, ptr %44, align 8, !tbaa !122
  %46 = shl i64 %42, 2
  tail call void @llvm.memcpy.p0.p0.i64(ptr align 4 %41, ptr align 4 %45, i64 %46, i1 false)
  br label %47

47:                                               ; preds = %43, %39
  %48 = getelementptr inbounds nuw i8, ptr %3, i64 24
  %49 = load ptr, ptr %48, align 8, !tbaa !122
  tail call void @_ZN13duckdb_brotli10BrotliFreeEPNS_13MemoryManagerEPv(ptr noundef %0, ptr noundef %49)
  store ptr %41, ptr %48, align 8, !tbaa !122
  store i64 %.075, ptr %33, align 8, !tbaa !120
  br label %50

50:                                               ; preds = %47, %32
  %51 = tail call noundef i64 @llvm.umin.i64(i64 range(i64 1, 36028797018963969) %8, i64 257)
  %52 = load ptr, ptr %12, align 8, !tbaa !156
  %53 = getelementptr inbounds nuw i8, ptr %52, i64 8
  store i64 %8, ptr %53, align 8, !tbaa !123
  store i64 %51, ptr %5, align 8, !tbaa !16
  %54 = mul nuw nsw i64 %51, 2192
  %55 = tail call noundef ptr @_ZN13duckdb_brotli14BrotliAllocateEPNS_13MemoryManagerEm(ptr noundef %0, i64 noundef %54)
  store ptr %55, ptr %4, align 8, !tbaa !161
  %56 = getelementptr inbounds nuw i8, ptr %1, i64 40
  store ptr %55, ptr %56, align 8, !tbaa !100
  %57 = getelementptr inbounds nuw i8, ptr %55, i64 2184
  tail call void @llvm.memset.p0.i64(ptr noundef nonnull align 8 dereferenceable(2184) %55, i8 0, i64 2184, i1 false)
  store double 0x7FF0000000000000, ptr %57, align 8, !tbaa !35
  %58 = getelementptr inbounds nuw i8, ptr %1, i64 4464
  tail call void @llvm.memset.p0.i64(ptr noundef nonnull align 8 dereferenceable(16) %58, i8 0, i64 16, i1 false)
  ret void
}